target datalayout = "e-m:e-p270:32:32-p271:32:32-p272:64:64-i64:64-i128:128-f80:128-n8:16:32:64-S128"
target triple = "x86_64-pc-linux-gnu"

%struct._wmem_range_t = type { i64, i64, i64 }

; Function Attrs: nounwind uwtable
define hidden zeroext i1 @wmem_itree_range_overlap(ptr noundef %0, ptr noundef %1) #0 {
  %3 = alloca ptr, align 8
  %4 = alloca ptr, align 8
  store ptr %0, ptr %3, align 8
  store ptr %1, ptr %4, align 8
  %5 = load ptr, ptr %3, align 8
  %6 = getelementptr inbounds %struct._wmem_range_t, ptr %5, i32 0, i32 0
  %7 = load i64, ptr %6, align 8
  %8 = load ptr, ptr %4, align 8
  %9 = getelementptr inbounds %struct._wmem_range_t, ptr %8, i32 0, i32 1
  %10 = load i64, ptr %9, align 8
  %11 = icmp ule i64 %7, %10
  br i1 %11, label %12, label %20

12:                                               ; preds = %2
  %13 = load ptr, ptr %4, align 8
  %14 = getelementptr inbounds %struct._wmem_range_t, ptr %13, i32 0, i32 0
  %15 = load i64, ptr %14, align 8
  %16 = load ptr, ptr %3, align 8
  %17 = getelementptr inbounds %struct._wmem_range_t, ptr %16, i32 0, i32 1
  %18 = load i64, ptr %17, align 8
  %19 = icmp ule i64 %15, %18
  br label %20

20:                                               ; preds = %12, %2
  %21 = phi i1 [ false, %2 ], [ %19, %12 ]
  ret i1 %21
}