; Function Attrs: mustprogress nofree norecurse nosync nounwind willreturn memory(argmem: read) uwtable
define hidden zeroext i1 @wmem_itree_range_overlap(ptr noundef readonly captures(none) %0, ptr noundef readonly captures(none) %1) local_unnamed_addr #0 {
  %3 = load i64, ptr %0, align 8
  %4 = getelementptr inbounds nuw i8, ptr %1, i64 8
  %5 = load i64, ptr %4, align 8
  %.not = icmp ugt i64 %3, %5
  br i1 %.not, label %11, label %6

6:                                                ; preds = %2
  %7 = load i64, ptr %1, align 8
  %8 = getelementptr inbounds nuw i8, ptr %0, i64 8
  %9 = load i64, ptr %8, align 8
  %10 = icmp ule i64 %7, %9
  br label %11

11:                                               ; preds = %6, %2
  %12 = phi i1 [ false, %2 ], [ %10, %6 ]
  ret i1 %12
}